Certificate:
    Data:
        Version: 3 (0x2)
        Serial Number: 1922246471639173865 (0x1aad30fb40cd0ae9)
        Signature Algorithm: ecdsa-with-SHA512
        Issuer: C = EE, O = Information System Authority, OU = Certification Services, CN = KLASS3-RIA 2018 ECC G3
        Validity
            Not Before: Sep 23 11:06:33 2022 GMT
            Not After : Sep 22 11:06:32 2027 GMT
        Subject: C = EE, ST = Harju County, L = Tallinn, O = Information System Authority, CN = eidprx-ddwebapp.test.riaint.ee
        Subject Public Key Info:
            Public Key Algorithm: id-ecPublicKey
                Public-Key: (384 bit)
                pub:
                    04:a6:a3:eb:ea:66:fd:ae:86:87:36:2c:b6:e3:d1:
                    53:38:0d:af:c6:02:75:2c:1b:66:a2:73:c4:5b:99:
                    7a:b4:8a:28:3e:f7:1b:8e:3c:e4:48:30:2e:cb:6d:
                    63:c0:1d:90:cf:13:96:9d:4d:d2:81:e6:4b:30:01:
                    29:9a:7a:ec:6f:fe:f3:30:08:1a:9a:12:f0:75:8e:
                    b5:67:f3:d3:a2:1d:76:7a:e2:05:15:3e:fe:53:0b:
                    7c:31:b2:62:98:51:cb
                ASN1 OID: secp384r1
                NIST CURVE: P-384
        X509v3 extensions:
            X509v3 Basic Constraints: 
                CA:FALSE
            X509v3 Authority Key Identifier: 
                57:1A:66:63:CE:2F:AE:AF:53:0E:2F:EE:0F:3C:F1:97:59:DD:CE:C4
            Authority Information Access: 
                CA Issuers - URI:http://www.ria.ee/certs/KLASS3-RIA_CA_2018_ECC_G2.der.crt
                OCSP - URI:http://ocsp.ria.ee/ssl
            X509v3 Subject Alternative Name: 
                DNS:eidprx-ddwebapp.test.riaint.ee, DNS:eidprx-ddwebapp-01.test.riaint.ee, DNS:eidprx-ddwebapp-02.test.riaint.ee
            X509v3 Extended Key Usage: 
                TLS Web Client Authentication, TLS Web Server Authentication
            X509v3 Subject Key Identifier: 
                28:AC:D9:12:33:FB:20:79:85:B4:E8:67:9A:79:20:78:A4:66:95:61
            X509v3 Key Usage: critical
                Digital Signature, Key Encipherment
    Signature Algorithm: ecdsa-with-SHA512
    Signature Value:
        30:46:02:21:00:ab:1d:b1:f1:f3:82:66:c9:d8:4e:19:46:40:
        bb:1c:7c:a5:19:1c:c0:b7:83:96:2c:41:a3:2c:7d:dc:d3:06:
        3d:02:21:00:cb:aa:6f:a1:48:64:8c:bf:f1:81:4a:40:20:6e:
        21:15:c8:92:c7:69:1f:15:6a:30:c8:2b:28:ff:96:63:c3:73
-----BEGIN CERTIFICATE-----
MIIDfTCCAyKgAwIBAgIIGq0w+0DNCukwCgYIKoZIzj0EAwQwdjELMAkGA1UEBhMC
RUUxJTAjBgNVBAoMHEluZm9ybWF0aW9uIFN5c3RlbSBBdXRob3JpdHkxHzAdBgNV
BAsMFkNlcnRpZmljYXRpb24gU2VydmljZXMxHzAdBgNVBAMMFktMQVNTMy1SSUEg
MjAxOCBFQ0MgRzMwHhcNMjIwOTIzMTEwNjMzWhcNMjcwOTIyMTEwNjMyWjCBhjEL
MAkGA1UEBhMCRUUxFTATBgNVBAgMDEhhcmp1IENvdW50eTEQMA4GA1UEBwwHVGFs
bGlubjElMCMGA1UECgwcSW5mb3JtYXRpb24gU3lzdGVtIEF1dGhvcml0eTEnMCUG
A1UEAwweZWlkcHJ4LWRkd2ViYXBwLnRlc3QucmlhaW50LmVlMHYwEAYHKoZIzj0C
AQYFK4EEACIDYgAEpqPr6mb9roaHNiy249FTOA2vxgJ1LBtmonPEW5l6tIooPvcb
jjzkSDAuy21jwB2QzxOWnU3SgeZLMAEpmnrsb/7zMAgamhLwdY61Z/PToh12euIF
FT7+Uwt8MbJimFHLo4IBajCCAWYwCQYDVR0TBAIwADAfBgNVHSMEGDAWgBRXGmZj
zi+ur1MOL+4PPPGXWd3OxDB5BggrBgEFBQcBAQRtMGswRQYIKwYBBQUHMAKGOWh0
dHA6Ly93d3cucmlhLmVlL2NlcnRzL0tMQVNTMy1SSUFfQ0FfMjAxOF9FQ0NfRzIu
ZGVyLmNydDAiBggrBgEFBQcwAYYWaHR0cDovL29jc3AucmlhLmVlL3NzbDBvBgNV
HREEaDBmgh5laWRwcngtZGR3ZWJhcHAudGVzdC5yaWFpbnQuZWWCIWVpZHByeC1k
ZHdlYmFwcC0wMS50ZXN0LnJpYWludC5lZYIhZWlkcHJ4LWRkd2ViYXBwLTAyLnRl
c3QucmlhaW50LmVlMB0GA1UdJQQWMBQGCCsGAQUFBwMCBggrBgEFBQcDATAdBgNV
HQ4EFgQUKKzZEjP7IHmFtOhnmnkgeKRmlWEwDgYDVR0PAQH/BAQDAgWgMAoGCCqG
SM49BAMEA0kAMEYCIQCrHbHx84JmydhOGUZAuxx8pRkcwLeDlixBoyx93NMGPQIh
AMuqb6FIZIy/8YFKQCBuIRXIksdpHxVqMMgrKP+WY8Nz
-----END CERTIFICATE-----
